; Function Attrs: nounwind uwtable
define ptr @l_Array_foldlMUnsafe_fold___at_ImportCompletion_computePartialImportCompletions___spec__2(ptr noundef readonly captures(none) %0, i64 noundef %1, i64 noundef %2, ptr noundef %3) local_unnamed_addr #0 {
  %.not33 = icmp eq i64 %1, %2
  br i1 %.not33, label %._crit_edge, label %.lr.ph

.lr.ph:                                           ; preds = %4
  %5 = getelementptr inbounds nuw i8, ptr %0, i64 24
  br label %6

6:                                                ; preds = %.lr.ph, %lean_dec.exit
  %.01935 = phi i64 [ %1, %.lr.ph ], [ %33, %lean_dec.exit ]
  %.02134 = phi ptr [ %3, %.lr.ph ], [ %.223, %lean_dec.exit ]
  %7 = getelementptr inbounds nuw [0 x ptr], ptr %5, i64 0, i64 %.01935
  %8 = load ptr, ptr %7, align 8, !tbaa !4
  %9 = ptrtoint ptr %8 to i64
  %10 = and i64 %9, 1
  %.not.i24 = icmp eq i64 %10, 0
  br i1 %.not.i24, label %11, label %lean_array_uget.exit.thread

11:                                               ; preds = %6
  %.val.i.i = load i32, ptr %8, align 4, !tbaa !8
  %12 = icmp sgt i32 %.val.i.i, 0
  br i1 %12, label %13, label %15, !prof !11

13:                                               ; preds = %11
  %14 = add nuw i32 %.val.i.i, 1
  store i32 %14, ptr %8, align 4, !tbaa !8
  br label %lean_array_uget.exit

15:                                               ; preds = %11
  %.not.i.i = icmp eq i32 %.val.i.i, 0
  br i1 %.not.i.i, label %lean_array_uget.exit, label %16

16:                                               ; preds = %15
  tail call void @lean_inc_ref_cold(ptr noundef nonnull %8) #5
  br label %lean_array_uget.exit

lean_array_uget.exit:                             ; preds = %13, %15, %16
  %17 = tail call zeroext i8 @l_Lean_Name_isAnonymous(ptr noundef nonnull %8) #5
  %18 = add i64 %.01935, 1
  %19 = icmp eq i8 %17, 0
  br i1 %19, label %23, label %26

lean_array_uget.exit.thread:                      ; preds = %6
  %20 = tail call zeroext i8 @l_Lean_Name_isAnonymous(ptr noundef %8) #5
  %21 = add i64 %.01935, 1
  %22 = icmp eq i8 %20, 0
  br i1 %22, label %23, label %lean_dec.exit

23:                                               ; preds = %lean_array_uget.exit.thread, %lean_array_uget.exit
  %24 = phi i64 [ %21, %lean_array_uget.exit.thread ], [ %18, %lean_array_uget.exit ]
  %25 = tail call ptr @lean_array_push(ptr noundef %.02134, ptr noundef %8) #5
  br label %lean_dec.exit

26:                                               ; preds = %lean_array_uget.exit
  %27 = load i32, ptr %8, align 4, !tbaa !8
  %28 = icmp sgt i32 %27, 1
  br i1 %28, label %29, label %31, !prof !11

29:                                               ; preds = %26
  %30 = add nsw i32 %27, -1
  store i32 %30, ptr %8, align 4, !tbaa !8
  br label %lean_dec.exit

31:                                               ; preds = %26
  %.not.i = icmp eq i32 %27, 0
  br i1 %.not.i, label %lean_dec.exit, label %32

32:                                               ; preds = %31
  tail call void @lean_dec_ref_cold(ptr noundef nonnull %8) #5
  br label %lean_dec.exit

lean_dec.exit:                                    ; preds = %lean_array_uget.exit.thread, %29, %31, %32, %23
  %33 = phi i64 [ %24, %23 ], [ %18, %32 ], [ %18, %31 ], [ %18, %29 ], [ %21, %lean_array_uget.exit.thread ]
  %.223 = phi ptr [ %25, %23 ], [ %.02134, %32 ], [ %.02134, %31 ], [ %.02134, %29 ], [ %.02134, %lean_array_uget.exit.thread ]
  %.not = icmp eq i64 %33, %2
  br i1 %.not, label %._crit_edge, label %6

._crit_edge:                                      ; preds = %lean_dec.exit, %4
  %.021.lcssa = phi ptr [ %3, %4 ], [ %.223, %lean_dec.exit ]
  ret ptr %.021.lcssa
}